target datalayout = "e-m:e-p270:32:32-p271:32:32-p272:64:64-i64:64-i128:128-f80:128-n8:16:32:64-S128"
target triple = "x86_64-pc-linux-gnu"

@pubkey_filename = internal global ptr null, align 8
@.str.25 = private unnamed_addr constant [2 x i8] c"r\00", align 1
@.str.26 = private unnamed_addr constant [35 x i8] c"../openssl/test/algorithmid_test.c\00", align 1
@.str.27 = private unnamed_addr constant [32 x i8] c"Couldn't open '%s' for reading\0A\00", align 1
@.str.59 = private unnamed_addr constant [64 x i8] c"'%s' doesn't appear to be a SubjectPublicKeyInfo in PEM format\0A\00", align 1

; Function Attrs: nounwind uwtable
define internal i32 @test_spki_file() #0 {
  %1 = alloca ptr, align 8
  %2 = alloca ptr, align 8
  %3 = alloca i32, align 4
  call void @llvm.lifetime.start.p0(i64 8, ptr %1) #5
  store ptr null, ptr %1, align 8, !tbaa !17
  call void @llvm.lifetime.start.p0(i64 8, ptr %2) #5
  %4 = load ptr, ptr @pubkey_filename, align 8, !tbaa !13
  %5 = call ptr @BIO_new_file(ptr noundef %4, ptr noundef @.str.25)
  store ptr %5, ptr %2, align 8, !tbaa !10
  call void @llvm.lifetime.start.p0(i64 4, ptr %3) #5
  store i32 0, ptr %3, align 4, !tbaa !4
  %6 = load ptr, ptr %2, align 8, !tbaa !10
  %7 = icmp eq ptr %6, null
  br i1 %7, label %8, label %10

8:                                                ; preds = %0
  %9 = load ptr, ptr @pubkey_filename, align 8, !tbaa !13
  call void (ptr, i32, ptr, ...) @test_error(ptr noundef @.str.26, i32 noundef 195, ptr noundef @.str.27, ptr noundef %9)
  call void @test_openssl_errors()
  br label %20

10:                                               ; preds = %0
  %11 = load ptr, ptr %2, align 8, !tbaa !10
  %12 = call ptr @PEM_read_bio_X509_PUBKEY(ptr noundef %11, ptr noundef null, ptr noundef null, ptr noundef null)
  store ptr %12, ptr %1, align 8, !tbaa !17
  %13 = icmp eq ptr %12, null
  br i1 %13, label %14, label %16

14:                                               ; preds = %10
  %15 = load ptr, ptr @pubkey_filename, align 8, !tbaa !13
  call void (ptr, i32, ptr, ...) @test_error(ptr noundef @.str.26, i32 noundef 202, ptr noundef @.str.59, ptr noundef %15)
  call void @test_openssl_errors()
  br label %20

16:                                               ; preds = %10
  %17 = load ptr, ptr %1, align 8, !tbaa !17
  %18 = load ptr, ptr @pubkey_filename, align 8, !tbaa !13
  %19 = call i32 @test_spki_aid(ptr noundef %17, ptr noundef %18)
  store i32 %19, ptr %3, align 4, !tbaa !4
  br label %20

20:                                               ; preds = %16, %14, %8
  %21 = load ptr, ptr %2, align 8, !tbaa !10
  %22 = call i32 @BIO_free(ptr noundef %21)
  %23 = load ptr, ptr %1, align 8, !tbaa !17
  call void @X509_PUBKEY_free(ptr noundef %23)
  %24 = load i32, ptr %3, align 4, !tbaa !4
  call void @llvm.lifetime.end.p0(i64 4, ptr %3) #5
  call void @llvm.lifetime.end.p0(i64 8, ptr %2) #5
  call void @llvm.lifetime.end.p0(i64 8, ptr %1) #5
  ret i32 %24
}