; Function Attrs: nounwind uwtable
define internal range(i32 0, 2) i32 @test_spki_file() #1 {
  %1 = load ptr, ptr @pubkey_filename, align 8, !tbaa !11
  %2 = tail call ptr @BIO_new_file(ptr noundef %1, ptr noundef nonnull @.str.25) #6
  %3 = icmp eq ptr %2, null
  br i1 %3, label %4, label %6

4:                                                ; preds = %0
  %5 = load ptr, ptr @pubkey_filename, align 8, !tbaa !11
  tail call void (ptr, i32, ptr, ...) @test_error(ptr noundef nonnull @.str.26, i32 noundef 195, ptr noundef nonnull @.str.27, ptr noundef %5) #6
  tail call void @test_openssl_errors() #6
  br label %13

6:                                                ; preds = %0
  %7 = tail call ptr @PEM_read_bio_X509_PUBKEY(ptr noundef nonnull %2, ptr noundef null, ptr noundef null, ptr noundef null) #6
  %8 = icmp eq ptr %7, null
  %9 = load ptr, ptr @pubkey_filename, align 8, !tbaa !11
  br i1 %8, label %10, label %11

10:                                               ; preds = %6
  tail call void (ptr, i32, ptr, ...) @test_error(ptr noundef nonnull @.str.26, i32 noundef 202, ptr noundef nonnull @.str.59, ptr noundef %9) #6
  tail call void @test_openssl_errors() #6
  br label %13

11:                                               ; preds = %6
  %12 = tail call fastcc i32 @test_spki_aid(ptr noundef nonnull %7, ptr noundef %9)
  br label %13

13:                                               ; preds = %11, %10, %4
  %.05 = phi ptr [ null, %4 ], [ null, %10 ], [ %7, %11 ]
  %.0 = phi i32 [ 0, %4 ], [ 0, %10 ], [ %12, %11 ]
  %14 = tail call i32 @BIO_free(ptr noundef %2) #6
  tail call void @X509_PUBKEY_free(ptr noundef %.05) #6
  ret i32 %.0
}